target datalayout = "e-m:e-p270:32:32-p271:32:32-p272:64:64-i64:64-i128:128-f80:128-n8:16:32:64-S128"
target triple = "x86_64-pc-linux-gnu"

%struct.jpeg_decompress_struct = type { ptr, ptr, ptr, ptr, i32, i32, ptr, i32, i32, i32, i32, i32, i32, i32, double, i32, i32, i32, i32, i32, i32, i32, i32, i32, i32, i32, i32, i32, i32, i32, i32, i32, i32, ptr, i32, i32, i32, i32, i32, ptr, [4 x ptr], [4 x ptr], [4 x ptr], i32, ptr, i32, i32, [16 x i8], [16 x i8], [16 x i8], i32, i32, i8, i8, i8, i16, i16, i32, i8, i32, ptr, i32, i32, i32, i32, ptr, i32, [4 x ptr], i32, i32, i32, [10 x i32], i32, i32, i32, i32, i32, ptr, ptr, ptr, ptr, ptr, ptr, ptr, ptr, ptr, ptr, ptr }
%struct.jpeg_error_mgr = type { ptr, ptr, ptr, ptr, ptr, i32, %union.anon, i32, i64, ptr, i32, ptr, i32, i32 }
%union.anon = type { [8 x i32], [48 x i8] }
%struct.jpeg_source_mgr = type { ptr, i64, ptr, ptr, ptr, ptr, ptr }
%struct.jpeg_marker_reader = type { ptr, ptr, ptr, i32, i32, i32, i32 }

; Function Attrs: nounwind uwtable
define internal i32 @read_restart_marker(ptr noundef %0) #0 {
  %2 = alloca i32, align 4
  %3 = alloca ptr, align 8
  store ptr %0, ptr %3, align 8, !tbaa !3
  %4 = load ptr, ptr %3, align 8, !tbaa !3
  %5 = getelementptr inbounds nuw %struct.jpeg_decompress_struct, ptr %4, i32 0, i32 76
  %6 = load i32, ptr %5, align 4, !tbaa !10
  %7 = icmp eq i32 %6, 0
  br i1 %7, label %8, label %14

8:                                                ; preds = %1
  %9 = load ptr, ptr %3, align 8, !tbaa !3
  %10 = call i32 @next_marker(ptr noundef %9)
  %11 = icmp ne i32 %10, 0
  br i1 %11, label %13, label %12

12:                                               ; preds = %8
  store i32 0, ptr %2, align 4
  br label %76

13:                                               ; preds = %8
  br label %14

14:                                               ; preds = %13, %1
  %15 = load ptr, ptr %3, align 8, !tbaa !3
  %16 = getelementptr inbounds nuw %struct.jpeg_decompress_struct, ptr %15, i32 0, i32 76
  %17 = load i32, ptr %16, align 4, !tbaa !10
  %18 = load ptr, ptr %3, align 8, !tbaa !3
  %19 = getelementptr inbounds nuw %struct.jpeg_decompress_struct, ptr %18, i32 0, i32 82
  %20 = load ptr, ptr %19, align 8, !tbaa !47
  %21 = getelementptr inbounds nuw %struct.jpeg_marker_reader, ptr %20, i32 0, i32 5
  %22 = load i32, ptr %21, align 8, !tbaa !72
  %23 = add nsw i32 208, %22
  %24 = icmp eq i32 %17, %23
  br i1 %24, label %25, label %48

25:                                               ; preds = %14
  %26 = load ptr, ptr %3, align 8, !tbaa !3
  %27 = getelementptr inbounds nuw %struct.jpeg_decompress_struct, ptr %26, i32 0, i32 0
  %28 = load ptr, ptr %27, align 8, !tbaa !33
  %29 = getelementptr inbounds nuw %struct.jpeg_error_mgr, ptr %28, i32 0, i32 5
  store i32 98, ptr %29, align 8, !tbaa !34
  %30 = load ptr, ptr %3, align 8, !tbaa !3
  %31 = getelementptr inbounds nuw %struct.jpeg_decompress_struct, ptr %30, i32 0, i32 82
  %32 = load ptr, ptr %31, align 8, !tbaa !47
  %33 = getelementptr inbounds nuw %struct.jpeg_marker_reader, ptr %32, i32 0, i32 5
  %34 = load i32, ptr %33, align 8, !tbaa !72
  %35 = load ptr, ptr %3, align 8, !tbaa !3
  %36 = getelementptr inbounds nuw %struct.jpeg_decompress_struct, ptr %35, i32 0, i32 0
  %37 = load ptr, ptr %36, align 8, !tbaa !33
  %38 = getelementptr inbounds nuw %struct.jpeg_error_mgr, ptr %37, i32 0, i32 6
  %39 = getelementptr inbounds [8 x i32], ptr %38, i64 0, i64 0
  store i32 %34, ptr %39, align 4, !tbaa !37
  %40 = load ptr, ptr %3, align 8, !tbaa !3
  %41 = getelementptr inbounds nuw %struct.jpeg_decompress_struct, ptr %40, i32 0, i32 0
  %42 = load ptr, ptr %41, align 8, !tbaa !33
  %43 = getelementptr inbounds nuw %struct.jpeg_error_mgr, ptr %42, i32 0, i32 1
  %44 = load ptr, ptr %43, align 8, !tbaa !38
  %45 = load ptr, ptr %3, align 8, !tbaa !3
  call void %44(ptr noundef %45, i32 noundef 3)
  %46 = load ptr, ptr %3, align 8, !tbaa !3
  %47 = getelementptr inbounds nuw %struct.jpeg_decompress_struct, ptr %46, i32 0, i32 76
  store i32 0, ptr %47, align 4, !tbaa !10
  br label %64

48:                                               ; preds = %14
  %49 = load ptr, ptr %3, align 8, !tbaa !3
  %50 = getelementptr inbounds nuw %struct.jpeg_decompress_struct, ptr %49, i32 0, i32 6
  %51 = load ptr, ptr %50, align 8, !tbaa !39
  %52 = getelementptr inbounds nuw %struct.jpeg_source_mgr, ptr %51, i32 0, i32 5
  %53 = load ptr, ptr %52, align 8, !tbaa !73
  %54 = load ptr, ptr %3, align 8, !tbaa !3
  %55 = load ptr, ptr %3, align 8, !tbaa !3
  %56 = getelementptr inbounds nuw %struct.jpeg_decompress_struct, ptr %55, i32 0, i32 82
  %57 = load ptr, ptr %56, align 8, !tbaa !47
  %58 = getelementptr inbounds nuw %struct.jpeg_marker_reader, ptr %57, i32 0, i32 5
  %59 = load i32, ptr %58, align 8, !tbaa !72
  %60 = call i32 %53(ptr noundef %54, i32 noundef %59)
  %61 = icmp ne i32 %60, 0
  br i1 %61, label %63, label %62

62:                                               ; preds = %48
  store i32 0, ptr %2, align 4
  br label %76

63:                                               ; preds = %48
  br label %64

64:                                               ; preds = %63, %25
  %65 = load ptr, ptr %3, align 8, !tbaa !3
  %66 = getelementptr inbounds nuw %struct.jpeg_decompress_struct, ptr %65, i32 0, i32 82
  %67 = load ptr, ptr %66, align 8, !tbaa !47
  %68 = getelementptr inbounds nuw %struct.jpeg_marker_reader, ptr %67, i32 0, i32 5
  %69 = load i32, ptr %68, align 8, !tbaa !72
  %70 = add nsw i32 %69, 1
  %71 = and i32 %70, 7
  %72 = load ptr, ptr %3, align 8, !tbaa !3
  %73 = getelementptr inbounds nuw %struct.jpeg_decompress_struct, ptr %72, i32 0, i32 82
  %74 = load ptr, ptr %73, align 8, !tbaa !47
  %75 = getelementptr inbounds nuw %struct.jpeg_marker_reader, ptr %74, i32 0, i32 5
  store i32 %71, ptr %75, align 8, !tbaa !72
  store i32 1, ptr %2, align 4
  br label %76

76:                                               ; preds = %64, %62, %12
  %77 = load i32, ptr %2, align 4
  ret i32 %77
}