; Function Attrs: nounwind uwtable
define internal range(i32 0, 2) i32 @read_restart_marker(ptr noundef %0) #0 {
  %2 = getelementptr inbounds nuw i8, ptr %0, i64 540
  %3 = load i32, ptr %2, align 4, !tbaa !3
  %4 = icmp eq i32 %3, 0
  br i1 %4, label %5, label %7

5:                                                ; preds = %1
  %6 = tail call fastcc i32 @next_marker(ptr noundef nonnull %0)
  %.not = icmp eq i32 %6, 0
  br i1 %.not, label %34, label %._crit_edge

._crit_edge:                                      ; preds = %5
  %.pre = load i32, ptr %2, align 4, !tbaa !3
  br label %7

7:                                                ; preds = %._crit_edge, %1
  %8 = phi i32 [ %.pre, %._crit_edge ], [ %3, %1 ]
  %9 = getelementptr inbounds nuw i8, ptr %0, i64 584
  %10 = load ptr, ptr %9, align 8, !tbaa !41
  %11 = getelementptr inbounds nuw i8, ptr %10, i64 32
  %12 = load i32, ptr %11, align 8, !tbaa !91
  %13 = add nsw i32 %12, 208
  %14 = icmp eq i32 %8, %13
  br i1 %14, label %15, label %22

15:                                               ; preds = %7
  %16 = load ptr, ptr %0, align 8, !tbaa !30
  %17 = getelementptr inbounds nuw i8, ptr %16, i64 40
  store i32 98, ptr %17, align 8, !tbaa !31
  %18 = getelementptr inbounds nuw i8, ptr %16, i64 44
  store i32 %12, ptr %18, align 4, !tbaa !34
  %19 = load ptr, ptr %0, align 8, !tbaa !30
  %20 = getelementptr inbounds nuw i8, ptr %19, i64 8
  %21 = load ptr, ptr %20, align 8, !tbaa !35
  tail call void %21(ptr noundef nonnull %0, i32 noundef 3) #7
  store i32 0, ptr %2, align 4, !tbaa !3
  br label %28

22:                                               ; preds = %7
  %23 = getelementptr inbounds nuw i8, ptr %0, i64 40
  %24 = load ptr, ptr %23, align 8, !tbaa !36
  %25 = getelementptr inbounds nuw i8, ptr %24, i64 40
  %26 = load ptr, ptr %25, align 8, !tbaa !102
  %27 = tail call i32 %26(ptr noundef nonnull %0, i32 noundef %12) #7
  %.not15 = icmp eq i32 %27, 0
  br i1 %.not15, label %34, label %28

28:                                               ; preds = %22, %15
  %29 = load ptr, ptr %9, align 8, !tbaa !41
  %30 = getelementptr inbounds nuw i8, ptr %29, i64 32
  %31 = load i32, ptr %30, align 8, !tbaa !91
  %32 = add nsw i32 %31, 1
  %33 = and i32 %32, 7
  store i32 %33, ptr %30, align 8, !tbaa !91
  br label %34

34:                                               ; preds = %22, %5, %28
  %.0 = phi i32 [ 1, %28 ], [ 0, %5 ], [ 0, %22 ]
  ret i32 %.0
}